target datalayout = "e-m:e-p270:32:32-p271:32:32-p272:64:64-i64:64-i128:128-f80:128-n8:16:32:64-S128"
target triple = "x86_64-pc-linux-gnu"

%struct.Vec_Wrd_t_ = type { i32, i32, ptr }
%struct.Vec_Int_t_ = type { i32, i32, ptr }

@.str.5 = private unnamed_addr constant [2 x i8] c"\0A\00", align 1
@s_Counter = internal global i32 0, align 4
@.str.21 = private unnamed_addr constant [3 x i8] c"wb\00", align 1
@.str.22 = private unnamed_addr constant [26 x i8] c"Cannot open output file.\0A\00", align 1
@.str.28 = private unnamed_addr constant [9 x i8] c"%02d.pla\00", align 1
@.str.29 = private unnamed_addr constant [7 x i8] c".i %d\0A\00", align 1
@.str.30 = private unnamed_addr constant [7 x i8] c".o %d\0A\00", align 1
@.str.31 = private unnamed_addr constant [7 x i8] c".p %d\0A\00", align 1
@.str.32 = private unnamed_addr constant [3 x i8] c"%d\00", align 1
@.str.33 = private unnamed_addr constant [4 x i8] c" 0\0A\00", align 1
@.str.34 = private unnamed_addr constant [4 x i8] c" 1\0A\00", align 1
@.str.35 = private unnamed_addr constant [4 x i8] c" -\0A\00", align 1
@.str.36 = private unnamed_addr constant [4 x i8] c".e\0A\00", align 1
@.str.37 = private unnamed_addr constant [4 x i8] c"\0A.s\00", align 1
@.str.38 = private unnamed_addr constant [4 x i8] c" %d\00", align 1
@.str.39 = private unnamed_addr constant [4 x i8] c"\0A.a\00", align 1

; Function Attrs: inlinehint nounwind uwtable
define internal i32 @Vec_IntEntry(ptr noundef %0, i32 noundef %1) #2 {
  %3 = alloca ptr, align 8
  %4 = alloca i32, align 4
  store ptr %0, ptr %3, align 8, !tbaa !41
  store i32 %1, ptr %4, align 4, !tbaa !8
  %5 = load ptr, ptr %3, align 8, !tbaa !41
  %6 = getelementptr inbounds nuw %struct.Vec_Int_t_, ptr %5, i32 0, i32 2
  %7 = load ptr, ptr %6, align 8, !tbaa !59
  %8 = load i32, ptr %4, align 4, !tbaa !8
  %9 = sext i32 %8 to i64
  %10 = getelementptr inbounds i32, ptr %7, i64 %9
  %11 = load i32, ptr %10, align 4, !tbaa !8
  ret i32 %11
}

; Function Attrs: inlinehint nounwind uwtable
define internal i32 @Vec_IntSize(ptr noundef %0) #2 {
  %2 = alloca ptr, align 8
  store ptr %0, ptr %2, align 8, !tbaa !41
  %3 = load ptr, ptr %2, align 8, !tbaa !41
  %4 = getelementptr inbounds nuw %struct.Vec_Int_t_, ptr %3, i32 0, i32 1
  %5 = load i32, ptr %4, align 4, !tbaa !57
  ret i32 %5
}

; Function Attrs: inlinehint nounwind uwtable
define internal i32 @Abc_TtGetBit(ptr noundef %0, i32 noundef %1) #2 {
  %3 = alloca ptr, align 8
  %4 = alloca i32, align 4
  store ptr %0, ptr %3, align 8, !tbaa !10
  store i32 %1, ptr %4, align 4, !tbaa !8
  %5 = load ptr, ptr %3, align 8, !tbaa !10
  %6 = load i32, ptr %4, align 4, !tbaa !8
  %7 = ashr i32 %6, 6
  %8 = sext i32 %7 to i64
  %9 = getelementptr inbounds i64, ptr %5, i64 %8
  %10 = load i64, ptr %9, align 8, !tbaa !17
  %11 = load i32, ptr %4, align 4, !tbaa !8
  %12 = and i32 %11, 63
  %13 = zext i32 %12 to i64
  %14 = lshr i64 %10, %13
  %15 = trunc i64 %14 to i32
  %16 = and i32 %15, 1
  ret i32 %16
}

; Function Attrs: inlinehint nounwind uwtable
define internal ptr @Vec_WrdEntryP(ptr noundef %0, i32 noundef %1) #2 {
  %3 = alloca ptr, align 8
  %4 = alloca i32, align 4
  store ptr %0, ptr %3, align 8, !tbaa !3
  store i32 %1, ptr %4, align 4, !tbaa !8
  %5 = load ptr, ptr %3, align 8, !tbaa !3
  %6 = getelementptr inbounds nuw %struct.Vec_Wrd_t_, ptr %5, i32 0, i32 2
  %7 = load ptr, ptr %6, align 8, !tbaa !16
  %8 = load i32, ptr %4, align 4, !tbaa !8
  %9 = sext i32 %8 to i64
  %10 = getelementptr inbounds i64, ptr %7, i64 %9
  ret ptr %10
}

; Function Attrs: inlinehint nounwind uwtable
define internal i32 @Vec_WrdSize(ptr noundef %0) #2 {
  %2 = alloca ptr, align 8
  store ptr %0, ptr %2, align 8, !tbaa !3
  %3 = load ptr, ptr %2, align 8, !tbaa !3
  %4 = getelementptr inbounds nuw %struct.Vec_Wrd_t_, ptr %3, i32 0, i32 1
  %5 = load i32, ptr %4, align 4, !tbaa !14
  ret i32 %5
}

; Function Attrs: nounwind uwtable
define void @Supp_DeriveDumpProb2(ptr noundef %0, ptr noundef %1, i32 noundef %2, ptr noundef %3, ptr noundef %4) #0 {
  %6 = alloca ptr, align 8
  %7 = alloca ptr, align 8
  %8 = alloca i32, align 4
  %9 = alloca ptr, align 8
  %10 = alloca ptr, align 8
  %11 = alloca [100 x i8], align 16
  %12 = alloca i32, align 4
  %13 = alloca i32, align 4
  %14 = alloca i32, align 4
  %15 = alloca i32, align 4
  %16 = alloca i32, align 4
  %17 = alloca ptr, align 8
  store ptr %0, ptr %6, align 8, !tbaa !3
  store ptr %1, ptr %7, align 8, !tbaa !3
  store i32 %2, ptr %8, align 4, !tbaa !8
  store ptr %3, ptr %9, align 8, !tbaa !41
  store ptr %4, ptr %10, align 8, !tbaa !41
  call void @llvm.lifetime.start.p0(i64 100, ptr %11) #15
  call void @llvm.lifetime.start.p0(i64 4, ptr %12) #15
  call void @llvm.lifetime.start.p0(i64 4, ptr %13) #15
  call void @llvm.lifetime.start.p0(i64 4, ptr %14) #15
  call void @llvm.lifetime.start.p0(i64 4, ptr %15) #15
  %18 = load ptr, ptr %7, align 8, !tbaa !3
  %19 = call i32 @Vec_WrdSize(ptr noundef %18)
  %20 = load i32, ptr %8, align 4, !tbaa !8
  %21 = sdiv i32 %19, %20
  store i32 %21, ptr %15, align 4, !tbaa !8
  call void @llvm.lifetime.start.p0(i64 4, ptr %16) #15
  %22 = getelementptr inbounds [100 x i8], ptr %11, i64 0, i64 0
  %23 = load i32, ptr @s_Counter, align 4, !tbaa !8
  %24 = call i32 (ptr, ptr, ...) @sprintf(ptr noundef %22, ptr noundef @.str.28, i32 noundef %23) #15
  store i32 %24, ptr %16, align 4, !tbaa !8
  call void @llvm.lifetime.start.p0(i64 8, ptr %17) #15
  %25 = getelementptr inbounds [100 x i8], ptr %11, i64 0, i64 0
  %26 = call noalias ptr @fopen(ptr noundef %25, ptr noundef @.str.21)
  store ptr %26, ptr %17, align 8, !tbaa !166
  %27 = load ptr, ptr %17, align 8, !tbaa !166
  %28 = icmp eq ptr %27, null
  br i1 %28, label %29, label %31

29:                                               ; preds = %5
  %30 = call i32 (ptr, ...) @printf(ptr noundef @.str.22)
  br label %31

31:                                               ; preds = %29, %5
  %32 = load ptr, ptr %17, align 8, !tbaa !166
  %33 = load i32, ptr %15, align 4, !tbaa !8
  %34 = call i32 (ptr, ptr, ...) @fprintf(ptr noundef %32, ptr noundef @.str.29, i32 noundef %33) #15
  %35 = load ptr, ptr %17, align 8, !tbaa !166
  %36 = call i32 (ptr, ptr, ...) @fprintf(ptr noundef %35, ptr noundef @.str.30, i32 noundef 1) #15
  %37 = load ptr, ptr %17, align 8, !tbaa !166
  %38 = load i32, ptr %8, align 4, !tbaa !8
  %39 = mul nsw i32 64, %38
  %40 = call i32 (ptr, ptr, ...) @fprintf(ptr noundef %37, ptr noundef @.str.31, i32 noundef %39) #15
  store i32 0, ptr %12, align 4, !tbaa !8
  br label %41

41:                                               ; preds = %91, %31
  %42 = load i32, ptr %12, align 4, !tbaa !8
  %43 = load i32, ptr %8, align 4, !tbaa !8
  %44 = mul nsw i32 64, %43
  %45 = icmp slt i32 %42, %44
  br i1 %45, label %46, label %94

46:                                               ; preds = %41
  store i32 0, ptr %13, align 4, !tbaa !8
  br label %47

47:                                               ; preds = %61, %46
  %48 = load i32, ptr %13, align 4, !tbaa !8
  %49 = load i32, ptr %15, align 4, !tbaa !8
  %50 = icmp slt i32 %48, %49
  br i1 %50, label %51, label %64

51:                                               ; preds = %47
  %52 = load ptr, ptr %17, align 8, !tbaa !166
  %53 = load ptr, ptr %7, align 8, !tbaa !3
  %54 = load i32, ptr %13, align 4, !tbaa !8
  %55 = load i32, ptr %8, align 4, !tbaa !8
  %56 = mul nsw i32 %54, %55
  %57 = call ptr @Vec_WrdEntryP(ptr noundef %53, i32 noundef %56)
  %58 = load i32, ptr %12, align 4, !tbaa !8
  %59 = call i32 @Abc_TtGetBit(ptr noundef %57, i32 noundef %58)
  %60 = call i32 (ptr, ptr, ...) @fprintf(ptr noundef %52, ptr noundef @.str.32, i32 noundef %59) #15
  br label %61

61:                                               ; preds = %51
  %62 = load i32, ptr %13, align 4, !tbaa !8
  %63 = add nsw i32 %62, 1
  store i32 %63, ptr %13, align 4, !tbaa !8
  br label %47, !llvm.loop !173

64:                                               ; preds = %47
  %65 = load ptr, ptr %6, align 8, !tbaa !3
  %66 = load i32, ptr %8, align 4, !tbaa !8
  %67 = mul nsw i32 0, %66
  %68 = call ptr @Vec_WrdEntryP(ptr noundef %65, i32 noundef %67)
  %69 = load i32, ptr %12, align 4, !tbaa !8
  %70 = call i32 @Abc_TtGetBit(ptr noundef %68, i32 noundef %69)
  %71 = icmp ne i32 %70, 0
  br i1 %71, label %72, label %75

72:                                               ; preds = %64
  %73 = load ptr, ptr %17, align 8, !tbaa !166
  %74 = call i32 (ptr, ptr, ...) @fprintf(ptr noundef %73, ptr noundef @.str.33) #15
  br label %90

75:                                               ; preds = %64
  %76 = load ptr, ptr %6, align 8, !tbaa !3
  %77 = load i32, ptr %8, align 4, !tbaa !8
  %78 = mul nsw i32 1, %77
  %79 = call ptr @Vec_WrdEntryP(ptr noundef %76, i32 noundef %78)
  %80 = load i32, ptr %12, align 4, !tbaa !8
  %81 = call i32 @Abc_TtGetBit(ptr noundef %79, i32 noundef %80)
  %82 = icmp ne i32 %81, 0
  br i1 %82, label %83, label %86

83:                                               ; preds = %75
  %84 = load ptr, ptr %17, align 8, !tbaa !166
  %85 = call i32 (ptr, ptr, ...) @fprintf(ptr noundef %84, ptr noundef @.str.34) #15
  br label %89

86:                                               ; preds = %75
  %87 = load ptr, ptr %17, align 8, !tbaa !166
  %88 = call i32 (ptr, ptr, ...) @fprintf(ptr noundef %87, ptr noundef @.str.35) #15
  br label %89

89:                                               ; preds = %86, %83
  br label %90

90:                                               ; preds = %89, %72
  br label %91

91:                                               ; preds = %90
  %92 = load i32, ptr %12, align 4, !tbaa !8
  %93 = add nsw i32 %92, 1
  store i32 %93, ptr %12, align 4, !tbaa !8
  br label %41, !llvm.loop !174

94:                                               ; preds = %41
  %95 = load ptr, ptr %17, align 8, !tbaa !166
  %96 = call i32 (ptr, ptr, ...) @fprintf(ptr noundef %95, ptr noundef @.str.36) #15
  %97 = load ptr, ptr %17, align 8, !tbaa !166
  %98 = call i32 (ptr, ptr, ...) @fprintf(ptr noundef %97, ptr noundef @.str.37) #15
  store i32 2, ptr %12, align 4, !tbaa !8
  br label %99

99:                                               ; preds = %114, %94
  %100 = load i32, ptr %12, align 4, !tbaa !8
  %101 = load ptr, ptr %9, align 8, !tbaa !41
  %102 = call i32 @Vec_IntSize(ptr noundef %101)
  %103 = icmp slt i32 %100, %102
  br i1 %103, label %104, label %108

104:                                              ; preds = %99
  %105 = load ptr, ptr %9, align 8, !tbaa !41
  %106 = load i32, ptr %12, align 4, !tbaa !8
  %107 = call i32 @Vec_IntEntry(ptr noundef %105, i32 noundef %106)
  store i32 %107, ptr %14, align 4, !tbaa !8
  br label %108

108:                                              ; preds = %104, %99
  %109 = phi i1 [ false, %99 ], [ true, %104 ]
  br i1 %109, label %110, label %117

110:                                              ; preds = %108
  %111 = load ptr, ptr %17, align 8, !tbaa !166
  %112 = load i32, ptr %14, align 4, !tbaa !8
  %113 = call i32 (ptr, ptr, ...) @fprintf(ptr noundef %111, ptr noundef @.str.38, i32 noundef %112) #15
  br label %114

114:                                              ; preds = %110
  %115 = load i32, ptr %12, align 4, !tbaa !8
  %116 = add nsw i32 %115, 1
  store i32 %116, ptr %12, align 4, !tbaa !8
  br label %99, !llvm.loop !175

117:                                              ; preds = %108
  %118 = load ptr, ptr %17, align 8, !tbaa !166
  %119 = call i32 (ptr, ptr, ...) @fprintf(ptr noundef %118, ptr noundef @.str.39) #15
  store i32 0, ptr %12, align 4, !tbaa !8
  br label %120

120:                                              ; preds = %135, %117
  %121 = load i32, ptr %12, align 4, !tbaa !8
  %122 = load ptr, ptr %10, align 8, !tbaa !41
  %123 = call i32 @Vec_IntSize(ptr noundef %122)
  %124 = icmp slt i32 %121, %123
  br i1 %124, label %125, label %129

125:                                              ; preds = %120
  %126 = load ptr, ptr %10, align 8, !tbaa !41
  %127 = load i32, ptr %12, align 4, !tbaa !8
  %128 = call i32 @Vec_IntEntry(ptr noundef %126, i32 noundef %127)
  store i32 %128, ptr %14, align 4, !tbaa !8
  br label %129

129:                                              ; preds = %125, %120
  %130 = phi i1 [ false, %120 ], [ true, %125 ]
  br i1 %130, label %131, label %138

131:                                              ; preds = %129
  %132 = load ptr, ptr %17, align 8, !tbaa !166
  %133 = load i32, ptr %14, align 4, !tbaa !8
  %134 = call i32 (ptr, ptr, ...) @fprintf(ptr noundef %132, ptr noundef @.str.38, i32 noundef %133) #15
  br label %135

135:                                              ; preds = %131
  %136 = load i32, ptr %12, align 4, !tbaa !8
  %137 = add nsw i32 %136, 1
  store i32 %137, ptr %12, align 4, !tbaa !8
  br label %120, !llvm.loop !176

138:                                              ; preds = %129
  %139 = load ptr, ptr %17, align 8, !tbaa !166
  %140 = call i32 (ptr, ptr, ...) @fprintf(ptr noundef %139, ptr noundef @.str.5) #15
  %141 = load ptr, ptr %17, align 8, !tbaa !166
  %142 = call i32 @fclose(ptr noundef %141)
  store i32 0, ptr %16, align 4, !tbaa !8
  call void @llvm.lifetime.end.p0(i64 8, ptr %17) #15
  call void @llvm.lifetime.end.p0(i64 4, ptr %16) #15
  call void @llvm.lifetime.end.p0(i64 4, ptr %15) #15
  call void @llvm.lifetime.end.p0(i64 4, ptr %14) #15
  call void @llvm.lifetime.end.p0(i64 4, ptr %13) #15
  call void @llvm.lifetime.end.p0(i64 4, ptr %12) #15
  call void @llvm.lifetime.end.p0(i64 100, ptr %11) #15
  ret void
}