; Function Attrs: nofree nounwind uwtable
define void @Supp_DeriveDumpProb2(ptr noundef readonly captures(none) %0, ptr noundef readonly captures(none) %1, i32 noundef %2, ptr noundef readonly captures(none) %3, ptr noundef readonly captures(none) %4) local_unnamed_addr #12 {
  %6 = alloca [100 x i8], align 16
  call void @llvm.lifetime.start.p0(i64 100, ptr nonnull %6) #32
  %7 = getelementptr i8, ptr %1, i64 4
  %.val = load i32, ptr %7, align 4, !tbaa !3
  %8 = sdiv i32 %.val, %2
  %9 = load i32, ptr @s_Counter, align 4, !tbaa !35
  %10 = call i32 (ptr, ptr, ...) @sprintf(ptr noundef nonnull dereferenceable(1) %6, ptr noundef nonnull dereferenceable(1) @.str.28, i32 noundef %9) #32
  %11 = call noalias ptr @fopen(ptr noundef nonnull %6, ptr noundef nonnull @.str.21)
  %12 = icmp eq ptr %11, null
  br i1 %12, label %13, label %14

13:                                               ; preds = %5
  %puts = tail call i32 @puts(ptr nonnull dereferenceable(1) @str.5)
  br label %14

14:                                               ; preds = %13, %5
  %15 = tail call i32 (ptr, ptr, ...) @fprintf(ptr noundef %11, ptr noundef nonnull @.str.29, i32 noundef %8) #32
  %16 = tail call i32 (ptr, ptr, ...) @fprintf(ptr noundef %11, ptr noundef nonnull @.str.30, i32 noundef 1) #32
  %17 = shl nsw i32 %2, 6
  %18 = tail call i32 (ptr, ptr, ...) @fprintf(ptr noundef %11, ptr noundef nonnull @.str.31, i32 noundef %17) #32
  %19 = icmp sgt i32 %2, 0
  br i1 %19, label %.preheader.lr.ph, label %._crit_edge59

.preheader.lr.ph:                                 ; preds = %14
  %20 = icmp sgt i32 %8, 0
  %21 = getelementptr i8, ptr %1, i64 8
  %22 = getelementptr i8, ptr %0, i64 8
  %23 = zext nneg i32 %2 to i64
  %smax68 = tail call i32 @llvm.smax.i32(i32 %17, i32 1)
  br i1 %20, label %.preheader.us.preheader, label %.preheader

.preheader.us.preheader:                          ; preds = %.preheader.lr.ph
  %wide.trip.count = zext nneg i32 %8 to i64
  br label %.preheader.us

.preheader.us:                                    ; preds = %.preheader.us.preheader, %33
  %.058.us = phi i32 [ %35, %33 ], [ 0, %.preheader.us.preheader ]
  %24 = lshr i32 %.058.us, 6
  %25 = zext nneg i32 %24 to i64
  %26 = and i32 %.058.us, 63
  %27 = zext nneg i32 %26 to i64
  br label %36

28:                                               ; preds = %._crit_edge.us
  %29 = getelementptr inbounds nuw i64, ptr %.val51.us, i64 %23
  %30 = getelementptr inbounds nuw i64, ptr %29, i64 %25
  %31 = load i64, ptr %30, align 8, !tbaa !11
  %32 = and i64 %31, %47
  %.not49.us = icmp eq i64 %32, 0
  %.str.35..str.34 = select i1 %.not49.us, ptr @.str.35, ptr @.str.34
  br label %33

33:                                               ; preds = %28, %._crit_edge.us
  %.str.35.sink = phi ptr [ @.str.33, %._crit_edge.us ], [ %.str.35..str.34, %28 ]
  %34 = tail call i64 @fwrite(ptr nonnull %.str.35.sink, i64 3, i64 1, ptr %11)
  %35 = add nuw nsw i32 %.058.us, 1
  %exitcond69.not = icmp eq i32 %35, %smax68
  br i1 %exitcond69.not, label %._crit_edge59, label %.preheader.us, !llvm.loop !155

36:                                               ; preds = %.preheader.us, %36
  %indvars.iv = phi i64 [ 0, %.preheader.us ], [ %indvars.iv.next, %36 ]
  %37 = mul nuw nsw i64 %indvars.iv, %23
  %.val52.us = load ptr, ptr %21, align 8, !tbaa !10
  %38 = getelementptr inbounds nuw i64, ptr %.val52.us, i64 %37
  %39 = getelementptr inbounds nuw i64, ptr %38, i64 %25
  %40 = load i64, ptr %39, align 8, !tbaa !11
  %41 = lshr i64 %40, %27
  %42 = trunc i64 %41 to i32
  %43 = and i32 %42, 1
  %44 = tail call i32 (ptr, ptr, ...) @fprintf(ptr noundef %11, ptr noundef nonnull @.str.32, i32 noundef %43) #32
  %indvars.iv.next = add nuw nsw i64 %indvars.iv, 1
  %exitcond67.not = icmp eq i64 %indvars.iv.next, %wide.trip.count
  br i1 %exitcond67.not, label %._crit_edge.us, label %36, !llvm.loop !156

._crit_edge.us:                                   ; preds = %36
  %.val51.us = load ptr, ptr %22, align 8, !tbaa !10
  %45 = getelementptr inbounds nuw i64, ptr %.val51.us, i64 %25
  %46 = load i64, ptr %45, align 8, !tbaa !11
  %47 = shl nuw i64 1, %27
  %48 = and i64 %46, %47
  %.not.us = icmp eq i64 %48, 0
  br i1 %.not.us, label %28, label %33

.preheader:                                       ; preds = %.preheader.lr.ph, %62
  %.058 = phi i32 [ %64, %62 ], [ 0, %.preheader.lr.ph ]
  %.val51 = load ptr, ptr %22, align 8, !tbaa !10
  %49 = lshr i32 %.058, 6
  %50 = zext nneg i32 %49 to i64
  %51 = getelementptr inbounds nuw i64, ptr %.val51, i64 %50
  %52 = load i64, ptr %51, align 8, !tbaa !11
  %53 = and i32 %.058, 63
  %54 = zext nneg i32 %53 to i64
  %55 = shl nuw i64 1, %54
  %56 = and i64 %52, %55
  %.not = icmp eq i64 %56, 0
  br i1 %.not, label %57, label %62

57:                                               ; preds = %.preheader
  %58 = getelementptr inbounds nuw i64, ptr %.val51, i64 %23
  %59 = getelementptr inbounds nuw i64, ptr %58, i64 %50
  %60 = load i64, ptr %59, align 8, !tbaa !11
  %61 = and i64 %60, %55
  %.not49 = icmp eq i64 %61, 0
  %.str.35..str.3477 = select i1 %.not49, ptr @.str.35, ptr @.str.34
  br label %62

62:                                               ; preds = %57, %.preheader
  %.str.33.sink = phi ptr [ @.str.33, %.preheader ], [ %.str.35..str.3477, %57 ]
  %63 = tail call i64 @fwrite(ptr nonnull %.str.33.sink, i64 3, i64 1, ptr %11)
  %64 = add nuw nsw i32 %.058, 1
  %exitcond.not = icmp eq i32 %64, %smax68
  br i1 %exitcond.not, label %._crit_edge59, label %.preheader, !llvm.loop !155

._crit_edge59:                                    ; preds = %62, %33, %14
  %65 = tail call i64 @fwrite(ptr nonnull @.str.36, i64 3, i64 1, ptr %11)
  %66 = tail call i64 @fwrite(ptr nonnull @.str.37, i64 3, i64 1, ptr %11)
  %67 = getelementptr i8, ptr %3, i64 4
  %.val5460 = load i32, ptr %67, align 4, !tbaa !30
  %68 = icmp sgt i32 %.val5460, 2
  br i1 %68, label %.lr.ph, label %.critedge

.lr.ph:                                           ; preds = %._crit_edge59
  %69 = getelementptr i8, ptr %3, i64 8
  br label %70

70:                                               ; preds = %.lr.ph, %70
  %indvars.iv70 = phi i64 [ 2, %.lr.ph ], [ %indvars.iv.next71, %70 ]
  %.val56 = load ptr, ptr %69, align 8, !tbaa !34
  %71 = getelementptr inbounds nuw i32, ptr %.val56, i64 %indvars.iv70
  %72 = load i32, ptr %71, align 4, !tbaa !35
  %73 = tail call i32 (ptr, ptr, ...) @fprintf(ptr noundef %11, ptr noundef nonnull @.str.38, i32 noundef %72) #32
  %indvars.iv.next71 = add nuw nsw i64 %indvars.iv70, 1
  %.val54 = load i32, ptr %67, align 4, !tbaa !30
  %74 = sext i32 %.val54 to i64
  %75 = icmp slt i64 %indvars.iv.next71, %74
  br i1 %75, label %70, label %.critedge, !llvm.loop !157

.critedge:                                        ; preds = %70, %._crit_edge59
  %76 = tail call i64 @fwrite(ptr nonnull @.str.39, i64 3, i64 1, ptr %11)
  %77 = getelementptr i8, ptr %4, i64 4
  %.val5362 = load i32, ptr %77, align 4, !tbaa !30
  %78 = icmp sgt i32 %.val5362, 0
  br i1 %78, label %.lr.ph64, label %.critedge2

.lr.ph64:                                         ; preds = %.critedge
  %79 = getelementptr i8, ptr %4, i64 8
  br label %80

80:                                               ; preds = %.lr.ph64, %80
  %indvars.iv73 = phi i64 [ 0, %.lr.ph64 ], [ %indvars.iv.next74, %80 ]
  %.val55 = load ptr, ptr %79, align 8, !tbaa !34
  %81 = getelementptr inbounds nuw i32, ptr %.val55, i64 %indvars.iv73
  %82 = load i32, ptr %81, align 4, !tbaa !35
  %83 = tail call i32 (ptr, ptr, ...) @fprintf(ptr noundef %11, ptr noundef nonnull @.str.38, i32 noundef %82) #32
  %indvars.iv.next74 = add nuw nsw i64 %indvars.iv73, 1
  %.val53 = load i32, ptr %77, align 4, !tbaa !30
  %84 = sext i32 %.val53 to i64
  %85 = icmp slt i64 %indvars.iv.next74, %84
  br i1 %85, label %80, label %.critedge2, !llvm.loop !158

.critedge2:                                       ; preds = %80, %.critedge
  %fputc = tail call i32 @fputc(i32 10, ptr %11)
  %86 = tail call i32 @fclose(ptr noundef %11)
  call void @llvm.lifetime.end.p0(i64 100, ptr nonnull %6) #32
  ret void
}